; ModuleID = 'source-C-CXX/24/115.cpp'
source_filename = "source-C-CXX/24/115.cpp"
target datalayout = "e-m:e-p270:32:32-p271:32:32-p272:64:64-i64:64-f80:128-n8:16:32:64-S128"
target triple = "x86_64-pc-linux-gnu"

%"class.std::ios_base::Init" = type { i8 }
%"class.std::basic_istream" = type { i32 (...)**, i64, %"class.std::basic_ios" }
%"class.std::basic_ios" = type { %"class.std::ios_base", %"class.std::basic_ostream"*, i8, i8, %"class.std::basic_streambuf"*, %"class.std::ctype"*, %"class.std::num_put"*, %"class.std::num_get"* }
%"class.std::ios_base" = type { i32 (...)**, i64, i64, i32, i32, i32, %"struct.std::ios_base::_Callback_list"*, %"struct.std::ios_base::_Words", [8 x %"struct.std::ios_base::_Words"], i32, %"struct.std::ios_base::_Words"*, %"class.std::locale" }
%"struct.std::ios_base::_Callback_list" = type { %"struct.std::ios_base::_Callback_list"*, void (i32, %"class.std::ios_base"*, i32)*, i32, i32 }
%"struct.std::ios_base::_Words" = type { i8*, i64 }
%"class.std::locale" = type { %"class.std::locale::_Impl"* }
%"class.std::locale::_Impl" = type { i32, %"class.std::locale::facet"**, i64, %"class.std::locale::facet"**, i8** }
%"class.std::locale::facet" = type <{ i32 (...)**, i32, [4 x i8] }>
%"class.std::basic_ostream" = type { i32 (...)**, %"class.std::basic_ios" }
%"class.std::basic_streambuf" = type { i32 (...)**, i8*, i8*, i8*, i8*, i8*, i8*, %"class.std::locale" }
%"class.std::ctype" = type <{ %"class.std::locale::facet.base", [4 x i8], %struct.__locale_struct*, i8, [7 x i8], i32*, i32*, i16*, i8, [256 x i8], [256 x i8], i8, [6 x i8] }>
%"class.std::locale::facet.base" = type <{ i32 (...)**, i32 }>
%struct.__locale_struct = type { [13 x %struct.__locale_data*], i16*, i32*, i32*, [13 x i8*] }
%struct.__locale_data = type opaque
%"class.std::num_put" = type { %"class.std::locale::facet.base", [4 x i8] }
%"class.std::num_get" = type { %"class.std::locale::facet.base", [4 x i8] }

@_ZStL8__ioinit = internal global %"class.std::ios_base::Init" zeroinitializer, align 1
@__dso_handle = external hidden global i8
@_ZSt3cin = external global %"class.std::basic_istream", align 8
@_ZSt4cout = external global %"class.std::basic_ostream", align 8
@llvm.global_ctors = appending global [1 x { i32, void ()*, i8* }] [{ i32, void ()*, i8* } { i32 65535, void ()* @_GLOBAL__sub_I_115.cpp, i8* null }]

declare void @_ZNSt8ios_base4InitC1Ev(%"class.std::ios_base::Init"* nonnull align 1 dereferenceable(1)) unnamed_addr #0

; Function Attrs: nounwind
declare void @_ZNSt8ios_base4InitD1Ev(%"class.std::ios_base::Init"* nonnull align 1 dereferenceable(1)) unnamed_addr #1

; Function Attrs: nofree nounwind
declare i32 @__cxa_atexit(void (i8*)*, i8*, i8*) local_unnamed_addr #2

; Function Attrs: mustprogress norecurse sspstrong uwtable
define dso_local i32 @main() local_unnamed_addr #3 {
  %1 = alloca i8, align 1
  %2 = alloca [50 x i8], align 16
  %3 = alloca i32, align 4
  %4 = getelementptr inbounds [50 x i8], [50 x i8]* %2, i64 0, i64 0
  call void @llvm.lifetime.start.p0i8(i64 50, i8* nonnull %4) #8
  call void @llvm.memset.p0i8.i64(i8* noundef nonnull align 16 dereferenceable(50) %4, i8 0, i64 50, i1 false)
  %5 = bitcast i32* %3 to i8*
  call void @llvm.lifetime.start.p0i8(i64 4, i8* nonnull %5) #8
  %6 = call nonnull align 8 dereferenceable(16) %"class.std::basic_istream"* @_ZNSirsERi(%"class.std::basic_istream"* nonnull align 8 dereferenceable(16) @_ZSt3cin, i32* nonnull align 4 dereferenceable(4) %3)
  store i8 49, i8* %4, align 16, !tbaa !5
  %7 = load i32, i32* %3, align 4, !tbaa !8
  %8 = icmp slt i32 %7, 1
  br i1 %8, label %21, label %9

9:                                                ; preds = %0, %78
  %10 = phi i32 [ %80, %78 ], [ 1, %0 ]
  %11 = phi i32 [ %79, %78 ], [ 1, %0 ]
  %12 = icmp sgt i32 %11, 0
  br i1 %12, label %13, label %78

13:                                               ; preds = %9
  %14 = zext i32 %11 to i64
  %15 = and i64 %14, 1
  %16 = icmp eq i32 %11, 1
  br i1 %16, label %56, label %17

17:                                               ; preds = %13
  %18 = and i64 %14, 4294967294
  br label %24

19:                                               ; preds = %78
  %20 = icmp sgt i32 %79, 0
  br i1 %20, label %21, label %92

21:                                               ; preds = %0, %19
  %22 = phi i32 [ %79, %19 ], [ 1, %0 ]
  %23 = zext i32 %22 to i64
  br label %82

24:                                               ; preds = %24, %17
  %25 = phi i64 [ 0, %17 ], [ %53, %24 ]
  %26 = phi i32 [ 0, %17 ], [ %52, %24 ]
  %27 = phi i64 [ %18, %17 ], [ %54, %24 ]
  %28 = getelementptr inbounds [50 x i8], [50 x i8]* %2, i64 0, i64 %25
  %29 = load i8, i8* %28, align 2, !tbaa !5
  %30 = sext i8 %29 to i32
  %31 = shl nsw i32 %30, 1
  %32 = add nsw i32 %31, -96
  %33 = or i32 %32, %26
  %34 = icmp slt i32 %33, 10
  %35 = trunc i32 %33 to i8
  %36 = select i1 %34, i8 48, i8 38
  %37 = add i8 %36, %35
  %38 = xor i1 %34, true
  %39 = zext i1 %38 to i32
  store i8 %37, i8* %28, align 2, !tbaa !5
  %40 = or i64 %25, 1
  %41 = getelementptr inbounds [50 x i8], [50 x i8]* %2, i64 0, i64 %40
  %42 = load i8, i8* %41, align 1, !tbaa !5
  %43 = sext i8 %42 to i32
  %44 = shl nsw i32 %43, 1
  %45 = add nsw i32 %44, -96
  %46 = or i32 %45, %39
  %47 = icmp slt i32 %46, 10
  %48 = trunc i32 %46 to i8
  %49 = select i1 %47, i8 48, i8 38
  %50 = add i8 %49, %48
  %51 = xor i1 %47, true
  %52 = zext i1 %51 to i32
  store i8 %50, i8* %41, align 1, !tbaa !5
  %53 = add nuw nsw i64 %25, 2
  %54 = add i64 %27, -2
  %55 = icmp eq i64 %54, 0
  br i1 %55, label %56, label %24, !llvm.loop !10

56:                                               ; preds = %24, %13
  %57 = phi i1 [ undef, %13 ], [ %47, %24 ]
  %58 = phi i64 [ 0, %13 ], [ %53, %24 ]
  %59 = phi i32 [ 0, %13 ], [ %52, %24 ]
  %60 = icmp eq i64 %15, 0
  br i1 %60, label %72, label %61

61:                                               ; preds = %56
  %62 = getelementptr inbounds [50 x i8], [50 x i8]* %2, i64 0, i64 %58
  %63 = load i8, i8* %62, align 1, !tbaa !5
  %64 = sext i8 %63 to i32
  %65 = shl nsw i32 %64, 1
  %66 = add nsw i32 %65, -96
  %67 = or i32 %66, %59
  %68 = icmp slt i32 %67, 10
  %69 = trunc i32 %67 to i8
  %70 = select i1 %68, i8 48, i8 38
  %71 = add i8 %70, %69
  store i8 %71, i8* %62, align 1, !tbaa !5
  br label %72

72:                                               ; preds = %56, %61
  %73 = phi i1 [ %57, %56 ], [ %68, %61 ]
  br i1 %73, label %78, label %74

74:                                               ; preds = %72
  %75 = sext i32 %11 to i64
  %76 = getelementptr inbounds [50 x i8], [50 x i8]* %2, i64 0, i64 %75
  store i8 49, i8* %76, align 1, !tbaa !5
  %77 = add nsw i32 %11, 1
  br label %78

78:                                               ; preds = %9, %72, %74
  %79 = phi i32 [ %77, %74 ], [ %11, %72 ], [ %11, %9 ]
  %80 = add nuw i32 %10, 1
  %81 = icmp eq i32 %10, %7
  br i1 %81, label %19, label %9, !llvm.loop !12

82:                                               ; preds = %21, %82
  %83 = phi i64 [ %23, %21 ], [ %91, %82 ]
  %84 = phi i32 [ %22, %21 ], [ %85, %82 ]
  %85 = add nsw i32 %84, -1
  %86 = zext i32 %85 to i64
  %87 = getelementptr inbounds [50 x i8], [50 x i8]* %2, i64 0, i64 %86
  %88 = load i8, i8* %87, align 1, !tbaa !5
  call void @llvm.lifetime.start.p0i8(i64 1, i8* nonnull %1)
  store i8 %88, i8* %1, align 1, !tbaa !5
  %89 = call nonnull align 8 dereferenceable(8) %"class.std::basic_ostream"* @_ZSt16__ostream_insertIcSt11char_traitsIcEERSt13basic_ostreamIT_T0_ES6_PKS3_l(%"class.std::basic_ostream"* nonnull align 8 dereferenceable(8) @_ZSt4cout, i8* nonnull %1, i64 1)
  call void @llvm.lifetime.end.p0i8(i64 1, i8* nonnull %1)
  %90 = icmp sgt i64 %83, 1
  %91 = add nsw i64 %83, -1
  br i1 %90, label %82, label %92, !llvm.loop !13

92:                                               ; preds = %82, %19
  %93 = load i8*, i8** bitcast (%"class.std::basic_ostream"* @_ZSt4cout to i8**), align 8, !tbaa !14
  %94 = getelementptr i8, i8* %93, i64 -24
  %95 = bitcast i8* %94 to i64*
  %96 = load i64, i64* %95, align 8
  %97 = add nsw i64 %96, 240
  %98 = getelementptr inbounds i8, i8* bitcast (%"class.std::basic_ostream"* @_ZSt4cout to i8*), i64 %97
  %99 = bitcast i8* %98 to %"class.std::ctype"**
  %100 = load %"class.std::ctype"*, %"class.std::ctype"** %99, align 8, !tbaa !16
  %101 = icmp eq %"class.std::ctype"* %100, null
  br i1 %101, label %102, label %103

102:                                              ; preds = %92
  call void @_ZSt16__throw_bad_castv() #9
  unreachable

103:                                              ; preds = %92
  %104 = getelementptr inbounds %"class.std::ctype", %"class.std::ctype"* %100, i64 0, i32 8
  %105 = load i8, i8* %104, align 8, !tbaa !20
  %106 = icmp eq i8 %105, 0
  br i1 %106, label %110, label %107

107:                                              ; preds = %103
  %108 = getelementptr inbounds %"class.std::ctype", %"class.std::ctype"* %100, i64 0, i32 9, i64 10
  %109 = load i8, i8* %108, align 1, !tbaa !5
  br label %116

110:                                              ; preds = %103
  call void @_ZNKSt5ctypeIcE13_M_widen_initEv(%"class.std::ctype"* nonnull align 8 dereferenceable(570) %100)
  %111 = bitcast %"class.std::ctype"* %100 to i8 (%"class.std::ctype"*, i8)***
  %112 = load i8 (%"class.std::ctype"*, i8)**, i8 (%"class.std::ctype"*, i8)*** %111, align 8, !tbaa !14
  %113 = getelementptr inbounds i8 (%"class.std::ctype"*, i8)*, i8 (%"class.std::ctype"*, i8)** %112, i64 6
  %114 = load i8 (%"class.std::ctype"*, i8)*, i8 (%"class.std::ctype"*, i8)** %113, align 8
  %115 = call signext i8 %114(%"class.std::ctype"* nonnull align 8 dereferenceable(570) %100, i8 signext 10)
  br label %116

116:                                              ; preds = %107, %110
  %117 = phi i8 [ %109, %107 ], [ %115, %110 ]
  %118 = call nonnull align 8 dereferenceable(8) %"class.std::basic_ostream"* @_ZNSo3putEc(%"class.std::basic_ostream"* nonnull align 8 dereferenceable(8) @_ZSt4cout, i8 signext %117)
  %119 = call nonnull align 8 dereferenceable(8) %"class.std::basic_ostream"* @_ZNSo5flushEv(%"class.std::basic_ostream"* nonnull align 8 dereferenceable(8) %118)
  call void @llvm.lifetime.end.p0i8(i64 4, i8* nonnull %5) #8
  call void @llvm.lifetime.end.p0i8(i64 50, i8* nonnull %4) #8
  ret i32 0
}

; Function Attrs: argmemonly mustprogress nofree nosync nounwind willreturn
declare void @llvm.lifetime.start.p0i8(i64 immarg, i8* nocapture) #4

; Function Attrs: argmemonly mustprogress nofree nounwind willreturn writeonly
declare void @llvm.memset.p0i8.i64(i8* nocapture writeonly, i8, i64, i1 immarg) #5

declare nonnull align 8 dereferenceable(16) %"class.std::basic_istream"* @_ZNSirsERi(%"class.std::basic_istream"* nonnull align 8 dereferenceable(16), i32* nonnull align 4 dereferenceable(4)) local_unnamed_addr #0

; Function Attrs: argmemonly mustprogress nofree nosync nounwind willreturn
declare void @llvm.lifetime.end.p0i8(i64 immarg, i8* nocapture) #4

declare nonnull align 8 dereferenceable(8) %"class.std::basic_ostream"* @_ZSt16__ostream_insertIcSt11char_traitsIcEERSt13basic_ostreamIT_T0_ES6_PKS3_l(%"class.std::basic_ostream"* nonnull align 8 dereferenceable(8), i8*, i64) local_unnamed_addr #0

declare nonnull align 8 dereferenceable(8) %"class.std::basic_ostream"* @_ZNSo3putEc(%"class.std::basic_ostream"* nonnull align 8 dereferenceable(8), i8 signext) local_unnamed_addr #0

declare nonnull align 8 dereferenceable(8) %"class.std::basic_ostream"* @_ZNSo5flushEv(%"class.std::basic_ostream"* nonnull align 8 dereferenceable(8)) local_unnamed_addr #0

; Function Attrs: noreturn
declare void @_ZSt16__throw_bad_castv() local_unnamed_addr #6

declare void @_ZNKSt5ctypeIcE13_M_widen_initEv(%"class.std::ctype"* nonnull align 8 dereferenceable(570)) local_unnamed_addr #0

; Function Attrs: sspstrong uwtable
define internal void @_GLOBAL__sub_I_115.cpp() #7 section ".text.startup" {
  tail call void @_ZNSt8ios_base4InitC1Ev(%"class.std::ios_base::Init"* nonnull align 1 dereferenceable(1) @_ZStL8__ioinit)
  %1 = tail call i32 @__cxa_atexit(void (i8*)* bitcast (void (%"class.std::ios_base::Init"*)* @_ZNSt8ios_base4InitD1Ev to void (i8*)*), i8* getelementptr inbounds (%"class.std::ios_base::Init", %"class.std::ios_base::Init"* @_ZStL8__ioinit, i64 0, i32 0), i8* nonnull @__dso_handle) #8
  ret void
}


!llvm.module.flags = !{!0, !1, !2, !3}
!llvm.ident = !{!4}

!0 = !{i32 1, !"wchar_size", i32 4}
!1 = !{i32 7, !"PIC Level", i32 2}
!2 = !{i32 7, !"PIE Level", i32 2}
!3 = !{i32 7, !"uwtable", i32 1}
!4 = !{!"clang version 13.0.0"}
!5 = !{!6, !6, i64 0}
!6 = !{!"omnipotent char", !7, i64 0}
!7 = !{!"Simple C++ TBAA"}
!8 = !{!9, !9, i64 0}
!9 = !{!"int", !6, i64 0}
!10 = distinct !{!10, !11}
!11 = !{!"llvm.loop.mustprogress"}
!12 = distinct !{!12, !11}
!13 = distinct !{!13, !11}
!14 = !{!15, !15, i64 0}
!15 = !{!"vtable pointer", !7, i64 0}
!16 = !{!17, !18, i64 240}
!17 = !{!"_ZTSSt9basic_iosIcSt11char_traitsIcEE", !18, i64 216, !6, i64 224, !19, i64 225, !18, i64 232, !18, i64 240, !18, i64 248, !18, i64 256}
!18 = !{!"any pointer", !6, i64 0}
!19 = !{!"bool", !6, i64 0}
!20 = !{!21, !6, i64 56}
!21 = !{!"_ZTSSt5ctypeIcE", !18, i64 16, !19, i64 24, !18, i64 32, !18, i64 40, !18, i64 48, !6, i64 56, !6, i64 57, !6, i64 313, !6, i64 569}
